target datalayout = "e-m:e-p270:32:32-p271:32:32-p272:64:64-i64:64-i128:128-f80:128-n8:16:32:64-S128"
target triple = "x86_64-pc-linux-gnu"

%"class.cv::Matx" = type { [9 x double] }
%"struct.cv::Matx_MatMulOp" = type { i8 }
%"struct.cv::internal::Matx_FastInvOp" = type { i8 }

; Function Attrs: inlinehint mustprogress nounwind uwtable
define linkonce_odr hidden noundef nonnull align 8 dereferenceable(8) ptr @_ZNK2cv4MatxIdLi3ELi3EEclEii(ptr noundef nonnull align 8 dereferenceable(72) %0, i32 noundef %1, i32 noundef %2) #7 comdat align 2 {
  %4 = alloca ptr, align 8
  %5 = alloca i32, align 4
  %6 = alloca i32, align 4
  store ptr %0, ptr %4, align 8, !tbaa !8
  store i32 %1, ptr %5, align 4, !tbaa !10
  store i32 %2, ptr %6, align 4, !tbaa !10
  %7 = load ptr, ptr %4, align 8
  %8 = getelementptr inbounds nuw %"class.cv::Matx", ptr %7, i32 0, i32 0
  %9 = load i32, ptr %5, align 4, !tbaa !10
  %10 = mul nsw i32 %9, 3
  %11 = load i32, ptr %6, align 4, !tbaa !10
  %12 = add nsw i32 %10, %11
  %13 = sext i32 %12 to i64
  %14 = getelementptr inbounds [9 x double], ptr %8, i64 0, i64 %13
  ret ptr %14
}

; Function Attrs: inlinehint mustprogress uwtable
define linkonce_odr hidden void @_ZN2cv4MatxIdLi3ELi3EE3allEd(ptr dead_on_unwind noalias writable sret(%"class.cv::Matx") align 8 %0, double noundef %1) #5 comdat align 2 {
  %3 = alloca double, align 8
  %4 = alloca i32, align 4
  store double %1, ptr %3, align 8, !tbaa !20
  call void @_ZN2cv4MatxIdLi3ELi3EEC2Ev(ptr noundef nonnull align 8 dereferenceable(72) %0)
  call void @llvm.lifetime.start.p0(i64 4, ptr %4) #3
  store i32 0, ptr %4, align 4, !tbaa !10
  br label %5

5:                                                ; preds = %15, %2
  %6 = load i32, ptr %4, align 4, !tbaa !10
  %7 = icmp slt i32 %6, 9
  br i1 %7, label %9, label %8

8:                                                ; preds = %5
  call void @llvm.lifetime.end.p0(i64 4, ptr %4) #3
  br label %18

9:                                                ; preds = %5
  %10 = load double, ptr %3, align 8, !tbaa !20
  %11 = getelementptr inbounds nuw %"class.cv::Matx", ptr %0, i32 0, i32 0
  %12 = load i32, ptr %4, align 4, !tbaa !10
  %13 = sext i32 %12 to i64
  %14 = getelementptr inbounds [9 x double], ptr %11, i64 0, i64 %13
  store double %10, ptr %14, align 8, !tbaa !20
  br label %15

15:                                               ; preds = %9
  %16 = load i32, ptr %4, align 4, !tbaa !10
  %17 = add nsw i32 %16, 1
  store i32 %17, ptr %4, align 4, !tbaa !10
  br label %5, !llvm.loop !196

18:                                               ; preds = %8
  ret void
}

; Function Attrs: inlinehint mustprogress uwtable
define linkonce_odr hidden void @_ZN2cv4MatxIdLi3ELi3EEC2ILi3EEERKNS0_IdLi3EXT_EEERKNS0_IdXT_ELi3EEENS_13Matx_MatMulOpE(ptr noundef nonnull align 8 dereferenceable(72) %0, ptr noundef nonnull align 8 dereferenceable(72) %1, ptr noundef nonnull align 8 dereferenceable(72) %2, ptr noundef %3) unnamed_addr #5 comdat align 2 {
  %5 = alloca ptr, align 8
  %6 = alloca ptr, align 8
  %7 = alloca ptr, align 8
  %8 = alloca ptr, align 8
  %9 = alloca i32, align 4
  %10 = alloca i32, align 4
  %11 = alloca i32, align 4
  %12 = alloca double, align 8
  %13 = alloca i32, align 4
  store ptr %0, ptr %5, align 8, !tbaa !8
  store ptr %1, ptr %6, align 8, !tbaa !8
  store ptr %2, ptr %7, align 8, !tbaa !8
  store ptr %3, ptr %8, align 8, !tbaa !197
  %14 = load ptr, ptr %5, align 8
  call void @llvm.lifetime.start.p0(i64 4, ptr %9) #3
  store i32 0, ptr %9, align 4, !tbaa !10
  br label %15

15:                                               ; preds = %58, %4
  %16 = load i32, ptr %9, align 4, !tbaa !10
  %17 = icmp slt i32 %16, 3
  br i1 %17, label %19, label %18

18:                                               ; preds = %15
  store i32 2, ptr %10, align 4
  call void @llvm.lifetime.end.p0(i64 4, ptr %9) #3
  br label %61

19:                                               ; preds = %15
  call void @llvm.lifetime.start.p0(i64 4, ptr %11) #3
  store i32 0, ptr %11, align 4, !tbaa !10
  br label %20

20:                                               ; preds = %54, %19
  %21 = load i32, ptr %11, align 4, !tbaa !10
  %22 = icmp slt i32 %21, 3
  br i1 %22, label %24, label %23

23:                                               ; preds = %20
  store i32 5, ptr %10, align 4
  call void @llvm.lifetime.end.p0(i64 4, ptr %11) #3
  br label %57

24:                                               ; preds = %20
  call void @llvm.lifetime.start.p0(i64 8, ptr %12) #3
  store double 0.000000e+00, ptr %12, align 8, !tbaa !20
  call void @llvm.lifetime.start.p0(i64 4, ptr %13) #3
  store i32 0, ptr %13, align 4, !tbaa !10
  br label %25

25:                                               ; preds = %42, %24
  %26 = load i32, ptr %13, align 4, !tbaa !10
  %27 = icmp slt i32 %26, 3
  br i1 %27, label %29, label %28

28:                                               ; preds = %25
  store i32 8, ptr %10, align 4
  call void @llvm.lifetime.end.p0(i64 4, ptr %13) #3
  br label %45

29:                                               ; preds = %25
  %30 = load ptr, ptr %6, align 8, !tbaa !8
  %31 = load i32, ptr %9, align 4, !tbaa !10
  %32 = load i32, ptr %13, align 4, !tbaa !10
  %33 = call noundef nonnull align 8 dereferenceable(8) ptr @_ZNK2cv4MatxIdLi3ELi3EEclEii(ptr noundef nonnull align 8 dereferenceable(72) %30, i32 noundef %31, i32 noundef %32)
  %34 = load double, ptr %33, align 8, !tbaa !20
  %35 = load ptr, ptr %7, align 8, !tbaa !8
  %36 = load i32, ptr %13, align 4, !tbaa !10
  %37 = load i32, ptr %11, align 4, !tbaa !10
  %38 = call noundef nonnull align 8 dereferenceable(8) ptr @_ZNK2cv4MatxIdLi3ELi3EEclEii(ptr noundef nonnull align 8 dereferenceable(72) %35, i32 noundef %36, i32 noundef %37)
  %39 = load double, ptr %38, align 8, !tbaa !20
  %40 = load double, ptr %12, align 8, !tbaa !20
  %41 = call double @llvm.fmuladd.f64(double %34, double %39, double %40)
  store double %41, ptr %12, align 8, !tbaa !20
  br label %42

42:                                               ; preds = %29
  %43 = load i32, ptr %13, align 4, !tbaa !10
  %44 = add nsw i32 %43, 1
  store i32 %44, ptr %13, align 4, !tbaa !10
  br label %25, !llvm.loop !199

45:                                               ; preds = %28
  %46 = load double, ptr %12, align 8, !tbaa !20
  %47 = getelementptr inbounds nuw %"class.cv::Matx", ptr %14, i32 0, i32 0
  %48 = load i32, ptr %9, align 4, !tbaa !10
  %49 = mul nsw i32 %48, 3
  %50 = load i32, ptr %11, align 4, !tbaa !10
  %51 = add nsw i32 %49, %50
  %52 = sext i32 %51 to i64
  %53 = getelementptr inbounds [9 x double], ptr %47, i64 0, i64 %52
  store double %46, ptr %53, align 8, !tbaa !20
  call void @llvm.lifetime.end.p0(i64 8, ptr %12) #3
  br label %54

54:                                               ; preds = %45
  %55 = load i32, ptr %11, align 4, !tbaa !10
  %56 = add nsw i32 %55, 1
  store i32 %56, ptr %11, align 4, !tbaa !10
  br label %20, !llvm.loop !200

57:                                               ; preds = %23
  br label %58

58:                                               ; preds = %57
  %59 = load i32, ptr %9, align 4, !tbaa !10
  %60 = add nsw i32 %59, 1
  store i32 %60, ptr %9, align 4, !tbaa !10
  br label %15, !llvm.loop !201

61:                                               ; preds = %18
  ret void
}

; Function Attrs: mustprogress nounwind uwtable
define linkonce_odr hidden void @_ZN2cv13Matx_MatMulOpC2Ev(ptr noundef nonnull align 1 dereferenceable(1) %0) unnamed_addr #10 comdat align 2 {
  %2 = alloca ptr, align 8
  store ptr %0, ptr %2, align 8, !tbaa !197
  ret void
}

; Function Attrs: inlinehint mustprogress uwtable
define linkonce_odr hidden void @_ZN2cv4MatxIdLi3ELi3EE5zerosEv(ptr dead_on_unwind noalias writable sret(%"class.cv::Matx") align 8 %0) #5 comdat align 2 {
  call void @_ZN2cv4MatxIdLi3ELi3EE3allEd(ptr dead_on_unwind writable sret(%"class.cv::Matx") align 8 %0, double noundef 0.000000e+00)
  ret void
}

; Function Attrs: inlinehint mustprogress nounwind uwtable
define linkonce_odr hidden void @_ZN2cv4MatxIdLi3ELi3EEC2Ev(ptr noundef nonnull align 8 dereferenceable(72) %0) unnamed_addr #7 comdat align 2 {
  %2 = alloca ptr, align 8
  %3 = alloca i32, align 4
  store ptr %0, ptr %2, align 8, !tbaa !8
  %4 = load ptr, ptr %2, align 8
  call void @llvm.lifetime.start.p0(i64 4, ptr %3) #3
  store i32 0, ptr %3, align 4, !tbaa !10
  br label %5

5:                                                ; preds = %14, %1
  %6 = load i32, ptr %3, align 4, !tbaa !10
  %7 = icmp slt i32 %6, 9
  br i1 %7, label %9, label %8

8:                                                ; preds = %5
  call void @llvm.lifetime.end.p0(i64 4, ptr %3) #3
  br label %17

9:                                                ; preds = %5
  %10 = getelementptr inbounds nuw %"class.cv::Matx", ptr %4, i32 0, i32 0
  %11 = load i32, ptr %3, align 4, !tbaa !10
  %12 = sext i32 %11 to i64
  %13 = getelementptr inbounds [9 x double], ptr %10, i64 0, i64 %12
  store double 0.000000e+00, ptr %13, align 8, !tbaa !20
  br label %14

14:                                               ; preds = %9
  %15 = load i32, ptr %3, align 4, !tbaa !10
  %16 = add nsw i32 %15, 1
  store i32 %16, ptr %3, align 4, !tbaa !10
  br label %5, !llvm.loop !84

17:                                               ; preds = %8
  ret void
}

; Function Attrs: inlinehint mustprogress uwtable
define internal void @_ZN2cvmlIdLi3ELi3ELi3EEENS_4MatxIT_XT0_EXT1_EEERKNS1_IS2_XT0_EXT2_EEERKNS1_IS2_XT2_EXT1_EEE(ptr dead_on_unwind noalias writable sret(%"class.cv::Matx") align 8 %0, ptr noundef nonnull align 8 dereferenceable(72) %1, ptr noundef nonnull align 8 dereferenceable(72) %2) #5 {
  %4 = alloca ptr, align 8
  %5 = alloca ptr, align 8
  %6 = alloca %"struct.cv::Matx_MatMulOp", align 1
  store ptr %1, ptr %4, align 8, !tbaa !8
  store ptr %2, ptr %5, align 8, !tbaa !8
  %7 = load ptr, ptr %4, align 8, !tbaa !8
  %8 = load ptr, ptr %5, align 8, !tbaa !8
  call void @_ZN2cv13Matx_MatMulOpC2Ev(ptr noundef nonnull align 1 dereferenceable(1) %6)
  call void @_ZN2cv4MatxIdLi3ELi3EEC2ILi3EEERKNS0_IdLi3EXT_EEERKNS0_IdXT_ELi3EEENS_13Matx_MatMulOpE(ptr noundef nonnull align 8 dereferenceable(72) %0, ptr noundef nonnull align 8 dereferenceable(72) %7, ptr noundef nonnull align 8 dereferenceable(72) %8, ptr noundef %6)
  ret void
}

; Function Attrs: inlinehint mustprogress uwtable
define linkonce_odr hidden void @_ZNK2cv4MatxIdLi3ELi3EE3invEiPb(ptr dead_on_unwind noalias writable sret(%"class.cv::Matx") align 8 %0, ptr noundef nonnull align 8 dereferenceable(72) %1, i32 noundef %2, ptr noundef %3) #5 comdat align 2 {
  %5 = alloca ptr, align 8
  %6 = alloca i32, align 4
  %7 = alloca ptr, align 8
  %8 = alloca %"class.cv::Matx", align 8
  %9 = alloca i8, align 1
  %10 = alloca %"struct.cv::internal::Matx_FastInvOp", align 1
  store ptr %1, ptr %5, align 8, !tbaa !8
  store i32 %2, ptr %6, align 4, !tbaa !10
  store ptr %3, ptr %7, align 8, !tbaa !12
  %11 = load ptr, ptr %5, align 8
  call void @llvm.lifetime.start.p0(i64 72, ptr %8) #3
  call void @_ZN2cv4MatxIdLi3ELi3EEC2Ev(ptr noundef nonnull align 8 dereferenceable(72) %8)
  call void @llvm.lifetime.start.p0(i64 1, ptr %9) #3
  call void @llvm.lifetime.start.p0(i64 1, ptr %10) #3
  %12 = load i32, ptr %6, align 4, !tbaa !10
  %13 = call noundef zeroext i1 @_ZNK2cv8internal14Matx_FastInvOpIdLi3ELi3EEclERKNS_4MatxIdLi3ELi3EEERS4_i(ptr noundef nonnull align 1 dereferenceable(1) %10, ptr noundef nonnull align 8 dereferenceable(72) %11, ptr noundef nonnull align 8 dereferenceable(72) %8, i32 noundef %12)
  call void @llvm.lifetime.end.p0(i64 1, ptr %10) #3
  %14 = zext i1 %13 to i8
  store i8 %14, ptr %9, align 1, !tbaa !14
  %15 = load ptr, ptr %7, align 8, !tbaa !12
  %16 = icmp ne ptr %15, null
  br i1 %16, label %17, label %22

17:                                               ; preds = %4
  %18 = load i8, ptr %9, align 1, !tbaa !14, !range !16, !noundef !17
  %19 = trunc i8 %18 to i1
  %20 = load ptr, ptr %7, align 8, !tbaa !12
  %21 = zext i1 %19 to i8
  store i8 %21, ptr %20, align 1, !tbaa !14
  br label %22

22:                                               ; preds = %17, %4
  %23 = load i8, ptr %9, align 1, !tbaa !14, !range !16, !noundef !17
  %24 = trunc i8 %23 to i1
  br i1 %24, label %25, label %26

25:                                               ; preds = %22
  call void @llvm.memcpy.p0.p0.i64(ptr align 8 %0, ptr align 8 %8, i64 72, i1 false), !tbaa.struct !18
  br label %27

26:                                               ; preds = %22
  call void @_ZN2cv4MatxIdLi3ELi3EE5zerosEv(ptr dead_on_unwind writable sret(%"class.cv::Matx") align 8 %0)
  br label %27

27:                                               ; preds = %26, %25
  call void @llvm.lifetime.end.p0(i64 1, ptr %9) #3
  call void @llvm.lifetime.end.p0(i64 72, ptr %8) #3
  ret void
}

; Function Attrs: mustprogress uwtable
define hidden void @_ZN2cv23HomographyDecomposition16HomographyDecomp9normalizeERKNS_4MatxIdLi3ELi3EEES5_(ptr dead_on_unwind noalias writable sret(%"class.cv::Matx") align 8 %0, ptr noundef nonnull align 8 dereferenceable(80) %1, ptr noundef nonnull align 8 dereferenceable(72) %2, ptr noundef nonnull align 8 dereferenceable(72) %3) #4 align 2 {
  %5 = alloca ptr, align 8
  %6 = alloca ptr, align 8
  %7 = alloca ptr, align 8
  %8 = alloca %"class.cv::Matx", align 8
  %9 = alloca %"class.cv::Matx", align 8
  store ptr %1, ptr %5, align 8, !tbaa !3
  store ptr %2, ptr %6, align 8, !tbaa !8
  store ptr %3, ptr %7, align 8, !tbaa !8
  call void @llvm.lifetime.start.p0(i64 72, ptr %8) #3
  call void @llvm.lifetime.start.p0(i64 72, ptr %9) #3
  %10 = load ptr, ptr %7, align 8, !tbaa !8
  call void @_ZNK2cv4MatxIdLi3ELi3EE3invEiPb(ptr dead_on_unwind writable sret(%"class.cv::Matx") align 8 %9, ptr noundef nonnull align 8 dereferenceable(72) %10, i32 noundef 0, ptr noundef null)
  %11 = load ptr, ptr %6, align 8, !tbaa !8
  call void @_ZN2cvmlIdLi3ELi3ELi3EEENS_4MatxIT_XT0_EXT1_EEERKNS1_IS2_XT0_EXT2_EEERKNS1_IS2_XT2_EXT1_EEE(ptr dead_on_unwind writable sret(%"class.cv::Matx") align 8 %8, ptr noundef nonnull align 8 dereferenceable(72) %9, ptr noundef nonnull align 8 dereferenceable(72) %11)
  %12 = load ptr, ptr %7, align 8, !tbaa !8
  call void @_ZN2cvmlIdLi3ELi3ELi3EEENS_4MatxIT_XT0_EXT1_EEERKNS1_IS2_XT0_EXT2_EEERKNS1_IS2_XT2_EXT1_EEE(ptr dead_on_unwind writable sret(%"class.cv::Matx") align 8 %0, ptr noundef nonnull align 8 dereferenceable(72) %8, ptr noundef nonnull align 8 dereferenceable(72) %12)
  call void @llvm.lifetime.end.p0(i64 72, ptr %9) #3
  call void @llvm.lifetime.end.p0(i64 72, ptr %8) #3
  ret void
}