; Function Attrs: mustprogress uwtable
define hidden void @_ZN2cv23HomographyDecomposition16HomographyDecomp9normalizeERKNS_4MatxIdLi3ELi3EEES5_(ptr dead_on_unwind noalias writable writeonly sret(%"class.cv::Matx") align 8 captures(none) %0, ptr noundef nonnull readnone align 8 captures(none) dereferenceable(80) %1, ptr noundef nonnull readonly align 8 captures(none) dereferenceable(72) %2, ptr noundef nonnull align 8 dereferenceable(72) %3) local_unnamed_addr #3 align 2 {
  %5 = alloca %"class.cv::Matx", align 8
  %6 = alloca %"struct.cv::internal::Matx_FastInvOp", align 1
  %7 = alloca %"class.cv::Matx", align 8
  %8 = alloca %"class.cv::Matx", align 8
  call void @llvm.lifetime.start.p0(i64 72, ptr nonnull %7) #25
  call void @llvm.lifetime.start.p0(i64 72, ptr nonnull %8) #25
  tail call void @llvm.experimental.noalias.scope.decl(metadata !3)
  call void @llvm.lifetime.start.p0(i64 72, ptr nonnull %5) #25, !noalias !3
  call void @llvm.memset.p0.i64(ptr noundef nonnull align 8 dereferenceable(72) %5, i8 0, i64 72, i1 false), !tbaa !6, !noalias !3
  call void @llvm.lifetime.start.p0(i64 1, ptr nonnull %6) #25, !noalias !3
  %9 = call noundef zeroext i1 @_ZNK2cv8internal14Matx_FastInvOpIdLi3ELi3EEclERKNS_4MatxIdLi3ELi3EEERS4_i(ptr noundef nonnull align 1 dereferenceable(1) %6, ptr noundef nonnull align 8 dereferenceable(72) %3, ptr noundef nonnull align 8 dereferenceable(72) %5, i32 noundef 0), !noalias !3
  call void @llvm.lifetime.end.p0(i64 1, ptr nonnull %6) #25, !noalias !3
  br i1 %9, label %10, label %11

10:                                               ; preds = %4
  call void @llvm.memcpy.p0.p0.i64(ptr noundef nonnull align 8 dereferenceable(72) %8, ptr noundef nonnull align 8 dereferenceable(72) %5, i64 72, i1 false), !tbaa.struct !10
  br label %_ZNK2cv4MatxIdLi3ELi3EE3invEiPb.exit

11:                                               ; preds = %4
  call void @llvm.memset.p0.i64(ptr noundef nonnull align 8 dereferenceable(72) %8, i8 0, i64 72, i1 false), !alias.scope !12
  br label %_ZNK2cv4MatxIdLi3ELi3EE3invEiPb.exit

_ZNK2cv4MatxIdLi3ELi3EE3invEiPb.exit:             ; preds = %10, %11
  call void @llvm.lifetime.end.p0(i64 72, ptr nonnull %5) #25, !noalias !3
  call void @llvm.experimental.noalias.scope.decl(metadata !15)
  br label %.preheader19.i.i

.preheader19.i.i:                                 ; preds = %13, %_ZNK2cv4MatxIdLi3ELi3EE3invEiPb.exit
  %indvars.iv29.i.i = phi i64 [ 0, %_ZNK2cv4MatxIdLi3ELi3EE3invEiPb.exit ], [ %indvars.iv.next30.i.i, %13 ]
  %12 = mul nuw nsw i64 %indvars.iv29.i.i, 3
  br label %.preheader.i.i

.preheader.i.i:                                   ; preds = %14, %.preheader19.i.i
  %indvars.iv25.i.i = phi i64 [ 0, %.preheader19.i.i ], [ %indvars.iv.next26.i.i, %14 ]
  br label %17

13:                                               ; preds = %14
  %indvars.iv.next30.i.i = add nuw nsw i64 %indvars.iv29.i.i, 1
  %exitcond32.not.i.i = icmp eq i64 %indvars.iv.next30.i.i, 3
  br i1 %exitcond32.not.i.i, label %_ZN2cvmlIdLi3ELi3ELi3EEENS_4MatxIT_XT0_EXT1_EEERKNS1_IS2_XT0_EXT2_EEERKNS1_IS2_XT2_EXT1_EEE.exit, label %.preheader19.i.i, !llvm.loop !18

14:                                               ; preds = %17
  %15 = add nuw nsw i64 %indvars.iv25.i.i, %12
  %16 = getelementptr inbounds nuw [9 x double], ptr %7, i64 0, i64 %15
  store double %25, ptr %16, align 8, !tbaa !6, !alias.scope !15
  %indvars.iv.next26.i.i = add nuw nsw i64 %indvars.iv25.i.i, 1
  %exitcond28.not.i.i = icmp eq i64 %indvars.iv.next26.i.i, 3
  br i1 %exitcond28.not.i.i, label %13, label %.preheader.i.i, !llvm.loop !20

17:                                               ; preds = %17, %.preheader.i.i
  %indvars.iv.i.i = phi i64 [ 0, %.preheader.i.i ], [ %indvars.iv.next.i.i, %17 ]
  %.01620.i.i = phi double [ 0.000000e+00, %.preheader.i.i ], [ %25, %17 ]
  %18 = add nuw nsw i64 %indvars.iv.i.i, %12
  %19 = getelementptr inbounds nuw [9 x double], ptr %8, i64 0, i64 %18
  %20 = load double, ptr %19, align 8, !tbaa !6, !noalias !15
  %21 = mul nuw nsw i64 %indvars.iv.i.i, 3
  %22 = add nuw nsw i64 %21, %indvars.iv25.i.i
  %23 = getelementptr inbounds nuw [9 x double], ptr %2, i64 0, i64 %22
  %24 = load double, ptr %23, align 8, !tbaa !6, !noalias !15
  %25 = call double @llvm.fmuladd.f64(double %20, double %24, double %.01620.i.i)
  %indvars.iv.next.i.i = add nuw nsw i64 %indvars.iv.i.i, 1
  %exitcond.not.i.i = icmp eq i64 %indvars.iv.next.i.i, 3
  br i1 %exitcond.not.i.i, label %14, label %17, !llvm.loop !21

_ZN2cvmlIdLi3ELi3ELi3EEENS_4MatxIT_XT0_EXT1_EEERKNS1_IS2_XT0_EXT2_EEERKNS1_IS2_XT2_EXT1_EEE.exit: ; preds = %13
  call void @llvm.experimental.noalias.scope.decl(metadata !22)
  br label %.preheader19.i.i3

.preheader19.i.i3:                                ; preds = %27, %_ZN2cvmlIdLi3ELi3ELi3EEENS_4MatxIT_XT0_EXT1_EEERKNS1_IS2_XT0_EXT2_EEERKNS1_IS2_XT2_EXT1_EEE.exit
  %indvars.iv29.i.i4 = phi i64 [ 0, %_ZN2cvmlIdLi3ELi3ELi3EEENS_4MatxIT_XT0_EXT1_EEERKNS1_IS2_XT0_EXT2_EEERKNS1_IS2_XT2_EXT1_EEE.exit ], [ %indvars.iv.next30.i.i13, %27 ]
  %26 = mul nuw nsw i64 %indvars.iv29.i.i4, 3
  br label %.preheader.i.i5

.preheader.i.i5:                                  ; preds = %28, %.preheader19.i.i3
  %indvars.iv25.i.i6 = phi i64 [ 0, %.preheader19.i.i3 ], [ %indvars.iv.next26.i.i11, %28 ]
  br label %31

27:                                               ; preds = %28
  %indvars.iv.next30.i.i13 = add nuw nsw i64 %indvars.iv29.i.i4, 1
  %exitcond32.not.i.i14 = icmp eq i64 %indvars.iv.next30.i.i13, 3
  br i1 %exitcond32.not.i.i14, label %_ZN2cvmlIdLi3ELi3ELi3EEENS_4MatxIT_XT0_EXT1_EEERKNS1_IS2_XT0_EXT2_EEERKNS1_IS2_XT2_EXT1_EEE.exit15, label %.preheader19.i.i3, !llvm.loop !18

28:                                               ; preds = %31
  %29 = add nuw nsw i64 %indvars.iv25.i.i6, %26
  %30 = getelementptr inbounds nuw [9 x double], ptr %0, i64 0, i64 %29
  store double %39, ptr %30, align 8, !tbaa !6, !alias.scope !22
  %indvars.iv.next26.i.i11 = add nuw nsw i64 %indvars.iv25.i.i6, 1
  %exitcond28.not.i.i12 = icmp eq i64 %indvars.iv.next26.i.i11, 3
  br i1 %exitcond28.not.i.i12, label %27, label %.preheader.i.i5, !llvm.loop !20

31:                                               ; preds = %31, %.preheader.i.i5
  %indvars.iv.i.i7 = phi i64 [ 0, %.preheader.i.i5 ], [ %indvars.iv.next.i.i9, %31 ]
  %.01620.i.i8 = phi double [ 0.000000e+00, %.preheader.i.i5 ], [ %39, %31 ]
  %32 = add nuw nsw i64 %indvars.iv.i.i7, %26
  %33 = getelementptr inbounds nuw [9 x double], ptr %7, i64 0, i64 %32
  %34 = load double, ptr %33, align 8, !tbaa !6, !noalias !22
  %35 = mul nuw nsw i64 %indvars.iv.i.i7, 3
  %36 = add nuw nsw i64 %35, %indvars.iv25.i.i6
  %37 = getelementptr inbounds nuw [9 x double], ptr %3, i64 0, i64 %36
  %38 = load double, ptr %37, align 8, !tbaa !6, !noalias !22
  %39 = call double @llvm.fmuladd.f64(double %34, double %38, double %.01620.i.i8)
  %indvars.iv.next.i.i9 = add nuw nsw i64 %indvars.iv.i.i7, 1
  %exitcond.not.i.i10 = icmp eq i64 %indvars.iv.next.i.i9, 3
  br i1 %exitcond.not.i.i10, label %28, label %31, !llvm.loop !21

_ZN2cvmlIdLi3ELi3ELi3EEENS_4MatxIT_XT0_EXT1_EEERKNS1_IS2_XT0_EXT2_EEERKNS1_IS2_XT2_EXT1_EEE.exit15: ; preds = %27
  call void @llvm.lifetime.end.p0(i64 72, ptr nonnull %8) #25
  call void @llvm.lifetime.end.p0(i64 72, ptr nonnull %7) #25
  ret void
}